target datalayout = "e-m:e-p270:32:32-p271:32:32-p272:64:64-i64:64-i128:128-f80:128-n8:16:32:64-S128"
target triple = "x86_64-pc-linux-gnu"

%struct.AVFilterContext = type { ptr, ptr, ptr, ptr, ptr, i32, ptr, ptr, i32, ptr, ptr, i32, i32, ptr, ptr, ptr, ptr, i32, ptr, i32, i32 }
%struct.UntileContext = type { ptr, i32, i32, i32, i32, ptr, ptr, i64, i64, [4 x i32] }

@.str.10 = private unnamed_addr constant [28 x i8] c"Tile size %ux%u is insane.\0A\00", align 1

; Function Attrs: cold nounwind optsize uwtable
define internal i32 @init(ptr noundef %0) #0 {
  %2 = alloca i32, align 4
  %3 = alloca ptr, align 8
  %4 = alloca ptr, align 8
  %5 = alloca i32, align 4
  store ptr %0, ptr %3, align 8, !tbaa !4
  call void @llvm.lifetime.start.p0(i64 8, ptr %4) #8
  %6 = load ptr, ptr %3, align 8, !tbaa !4
  %7 = getelementptr inbounds nuw %struct.AVFilterContext, ptr %6, i32 0, i32 9
  %8 = load ptr, ptr %7, align 8, !tbaa !9
  store ptr %8, ptr %4, align 8, !tbaa !22
  %9 = load ptr, ptr %4, align 8, !tbaa !22
  %10 = getelementptr inbounds nuw %struct.UntileContext, ptr %9, i32 0, i32 1
  %11 = load i32, ptr %10, align 8, !tbaa !24
  %12 = load ptr, ptr %4, align 8, !tbaa !22
  %13 = getelementptr inbounds nuw %struct.UntileContext, ptr %12, i32 0, i32 2
  %14 = load i32, ptr %13, align 4, !tbaa !29
  %15 = udiv i32 -1, %14
  %16 = icmp ugt i32 %11, %15
  br i1 %16, label %17, label %25

17:                                               ; preds = %1
  %18 = load ptr, ptr %3, align 8, !tbaa !4
  %19 = load ptr, ptr %4, align 8, !tbaa !22
  %20 = getelementptr inbounds nuw %struct.UntileContext, ptr %19, i32 0, i32 1
  %21 = load i32, ptr %20, align 8, !tbaa !24
  %22 = load ptr, ptr %4, align 8, !tbaa !22
  %23 = getelementptr inbounds nuw %struct.UntileContext, ptr %22, i32 0, i32 2
  %24 = load i32, ptr %23, align 4, !tbaa !29
  call void (ptr, i32, ptr, ...) @av_log(ptr noundef %18, i32 noundef 16, ptr noundef @.str.10, i32 noundef %21, i32 noundef %24)
  store i32 -22, ptr %2, align 4
  store i32 1, ptr %5, align 4
  br label %35

25:                                               ; preds = %1
  %26 = load ptr, ptr %4, align 8, !tbaa !22
  %27 = getelementptr inbounds nuw %struct.UntileContext, ptr %26, i32 0, i32 1
  %28 = load i32, ptr %27, align 8, !tbaa !24
  %29 = load ptr, ptr %4, align 8, !tbaa !22
  %30 = getelementptr inbounds nuw %struct.UntileContext, ptr %29, i32 0, i32 2
  %31 = load i32, ptr %30, align 4, !tbaa !29
  %32 = mul i32 %28, %31
  %33 = load ptr, ptr %4, align 8, !tbaa !22
  %34 = getelementptr inbounds nuw %struct.UntileContext, ptr %33, i32 0, i32 4
  store i32 %32, ptr %34, align 4, !tbaa !30
  store i32 0, ptr %2, align 4
  store i32 1, ptr %5, align 4
  br label %35

35:                                               ; preds = %25, %17
  call void @llvm.lifetime.end.p0(i64 8, ptr %4) #8
  %36 = load i32, ptr %2, align 4
  ret i32 %36
}