; Function Attrs: cold nounwind optsize uwtable
define internal range(i32 -22, 1) i32 @init(ptr noundef %0) #0 {
  %2 = getelementptr inbounds nuw i8, ptr %0, i64 72
  %3 = load ptr, ptr %2, align 8, !tbaa !4
  %4 = getelementptr inbounds nuw i8, ptr %3, i64 8
  %5 = load i32, ptr %4, align 8, !tbaa !20
  %6 = getelementptr inbounds nuw i8, ptr %3, i64 12
  %7 = load i32, ptr %6, align 4, !tbaa !25
  %mul = tail call { i32, i1 } @llvm.umul.with.overflow.i32(i32 %7, i32 %5)
  %mul.ov = extractvalue { i32, i1 } %mul, 1
  br i1 %mul.ov, label %8, label %9

8:                                                ; preds = %1
  tail call void (ptr, i32, ptr, ...) @av_log(ptr noundef nonnull %0, i32 noundef 16, ptr noundef nonnull @.str.10, i32 noundef %5, i32 noundef %7) #6
  br label %12

9:                                                ; preds = %1
  %10 = mul i32 %7, %5
  %11 = getelementptr inbounds nuw i8, ptr %3, i64 20
  store i32 %10, ptr %11, align 4, !tbaa !26
  br label %12

12:                                               ; preds = %9, %8
  %.0 = phi i32 [ -22, %8 ], [ 0, %9 ]
  ret i32 %.0
}